
kernel/arch/x86_64/idt/isr.k.o:     file format elf64-x86-64


Disassembly of section .text:

0000000000000000 <isrs_install>:
   0:	55                   	push   %rbp
   1:	48 89 e5             	mov    %rsp,%rbp
   4:	bf 00 00 00 00       	mov    $0x0,%edi
   9:	b8 00 00 00 00       	mov    $0x0,%eax
   e:	e8 00 00 00 00       	callq  13 <isrs_install+0x13>
  13:	b8 00 00 00 00       	mov    $0x0,%eax
  18:	b9 8e 00 00 00       	mov    $0x8e,%ecx
  1d:	ba 08 00 00 00       	mov    $0x8,%edx
  22:	48 89 c6             	mov    %rax,%rsi
  25:	bf 00 00 00 00       	mov    $0x0,%edi
  2a:	e8 00 00 00 00       	callq  2f <isrs_install+0x2f>
  2f:	b8 00 00 00 00       	mov    $0x0,%eax
  34:	b9 8e 00 00 00       	mov    $0x8e,%ecx
  39:	ba 08 00 00 00       	mov    $0x8,%edx
  3e:	48 89 c6             	mov    %rax,%rsi
  41:	bf 01 00 00 00       	mov    $0x1,%edi
  46:	e8 00 00 00 00       	callq  4b <isrs_install+0x4b>
  4b:	b8 00 00 00 00       	mov    $0x0,%eax
  50:	b9 8e 00 00 00       	mov    $0x8e,%ecx
  55:	ba 08 00 00 00       	mov    $0x8,%edx
  5a:	48 89 c6             	mov    %rax,%rsi
  5d:	bf 02 00 00 00       	mov    $0x2,%edi
  62:	e8 00 00 00 00       	callq  67 <isrs_install+0x67>
  67:	b8 00 00 00 00       	mov    $0x0,%eax
  6c:	b9 8e 00 00 00       	mov    $0x8e,%ecx
  71:	ba 08 00 00 00       	mov    $0x8,%edx
  76:	48 89 c6             	mov    %rax,%rsi
  79:	bf 03 00 00 00       	mov    $0x3,%edi
  7e:	e8 00 00 00 00       	callq  83 <isrs_install+0x83>
  83:	b8 00 00 00 00       	mov    $0x0,%eax
  88:	b9 8e 00 00 00       	mov    $0x8e,%ecx
  8d:	ba 08 00 00 00       	mov    $0x8,%edx
  92:	48 89 c6             	mov    %rax,%rsi
  95:	bf 04 00 00 00       	mov    $0x4,%edi
  9a:	e8 00 00 00 00       	callq  9f <isrs_install+0x9f>
  9f:	b8 00 00 00 00       	mov    $0x0,%eax
  a4:	b9 8e 00 00 00       	mov    $0x8e,%ecx
  a9:	ba 08 00 00 00       	mov    $0x8,%edx
  ae:	48 89 c6             	mov    %rax,%rsi
  b1:	bf 05 00 00 00       	mov    $0x5,%edi
  b6:	e8 00 00 00 00       	callq  bb <isrs_install+0xbb>
  bb:	b8 00 00 00 00       	mov    $0x0,%eax
  c0:	b9 8e 00 00 00       	mov    $0x8e,%ecx
  c5:	ba 08 00 00 00       	mov    $0x8,%edx
  ca:	48 89 c6             	mov    %rax,%rsi
  cd:	bf 06 00 00 00       	mov    $0x6,%edi
  d2:	e8 00 00 00 00       	callq  d7 <isrs_install+0xd7>
  d7:	b8 00 00 00 00       	mov    $0x0,%eax
  dc:	b9 8e 00 00 00       	mov    $0x8e,%ecx
  e1:	ba 08 00 00 00       	mov    $0x8,%edx
  e6:	48 89 c6             	mov    %rax,%rsi
  e9:	bf 07 00 00 00       	mov    $0x7,%edi
  ee:	e8 00 00 00 00       	callq  f3 <isrs_install+0xf3>
  f3:	b8 00 00 00 00       	mov    $0x0,%eax
  f8:	b9 8e 00 00 00       	mov    $0x8e,%ecx
  fd:	ba 08 00 00 00       	mov    $0x8,%edx
 102:	48 89 c6             	mov    %rax,%rsi
 105:	bf 08 00 00 00       	mov    $0x8,%edi
 10a:	e8 00 00 00 00       	callq  10f <isrs_install+0x10f>
 10f:	b8 00 00 00 00       	mov    $0x0,%eax
 114:	b9 8e 00 00 00       	mov    $0x8e,%ecx
 119:	ba 08 00 00 00       	mov    $0x8,%edx
 11e:	48 89 c6             	mov    %rax,%rsi
 121:	bf 09 00 00 00       	mov    $0x9,%edi
 126:	e8 00 00 00 00       	callq  12b <isrs_install+0x12b>
 12b:	b8 00 00 00 00       	mov    $0x0,%eax
 130:	b9 8e 00 00 00       	mov    $0x8e,%ecx
 135:	ba 08 00 00 00       	mov    $0x8,%edx
 13a:	48 89 c6             	mov    %rax,%rsi
 13d:	bf 0a 00 00 00       	mov    $0xa,%edi
 142:	e8 00 00 00 00       	callq  147 <isrs_install+0x147>
 147:	b8 00 00 00 00       	mov    $0x0,%eax
 14c:	b9 8e 00 00 00       	mov    $0x8e,%ecx
 151:	ba 08 00 00 00       	mov    $0x8,%edx
 156:	48 89 c6             	mov    %rax,%rsi
 159:	bf 0b 00 00 00       	mov    $0xb,%edi
 15e:	e8 00 00 00 00       	callq  163 <isrs_install+0x163>
 163:	b8 00 00 00 00       	mov    $0x0,%eax
 168:	b9 8e 00 00 00       	mov    $0x8e,%ecx
 16d:	ba 08 00 00 00       	mov    $0x8,%edx
 172:	48 89 c6             	mov    %rax,%rsi
 175:	bf 0c 00 00 00       	mov    $0xc,%edi
 17a:	e8 00 00 00 00       	callq  17f <isrs_install+0x17f>
 17f:	b8 00 00 00 00       	mov    $0x0,%eax
 184:	b9 8e 00 00 00       	mov    $0x8e,%ecx
 189:	ba 08 00 00 00       	mov    $0x8,%edx
 18e:	48 89 c6             	mov    %rax,%rsi
 191:	bf 0d 00 00 00       	mov    $0xd,%edi
 196:	e8 00 00 00 00       	callq  19b <isrs_install+0x19b>
 19b:	b8 00 00 00 00       	mov    $0x0,%eax
 1a0:	b9 8e 00 00 00       	mov    $0x8e,%ecx
 1a5:	ba 08 00 00 00       	mov    $0x8,%edx
 1aa:	48 89 c6             	mov    %rax,%rsi
 1ad:	bf 0e 00 00 00       	mov    $0xe,%edi
 1b2:	e8 00 00 00 00       	callq  1b7 <isrs_install+0x1b7>
 1b7:	b8 00 00 00 00       	mov    $0x0,%eax
 1bc:	b9 8e 00 00 00       	mov    $0x8e,%ecx
 1c1:	ba 08 00 00 00       	mov    $0x8,%edx
 1c6:	48 89 c6             	mov    %rax,%rsi
 1c9:	bf 0f 00 00 00       	mov    $0xf,%edi
 1ce:	e8 00 00 00 00       	callq  1d3 <isrs_install+0x1d3>
 1d3:	b8 00 00 00 00       	mov    $0x0,%eax
 1d8:	b9 8e 00 00 00       	mov    $0x8e,%ecx
 1dd:	ba 08 00 00 00       	mov    $0x8,%edx
 1e2:	48 89 c6             	mov    %rax,%rsi
 1e5:	bf 10 00 00 00       	mov    $0x10,%edi
 1ea:	e8 00 00 00 00       	callq  1ef <isrs_install+0x1ef>
 1ef:	b8 00 00 00 00       	mov    $0x0,%eax
 1f4:	b9 8e 00 00 00       	mov    $0x8e,%ecx
 1f9:	ba 08 00 00 00       	mov    $0x8,%edx
 1fe:	48 89 c6             	mov    %rax,%rsi
 201:	bf 11 00 00 00       	mov    $0x11,%edi
 206:	e8 00 00 00 00       	callq  20b <isrs_install+0x20b>
 20b:	b8 00 00 00 00       	mov    $0x0,%eax
 210:	b9 8e 00 00 00       	mov    $0x8e,%ecx
 215:	ba 08 00 00 00       	mov    $0x8,%edx
 21a:	48 89 c6             	mov    %rax,%rsi
 21d:	bf 12 00 00 00       	mov    $0x12,%edi
 222:	e8 00 00 00 00       	callq  227 <isrs_install+0x227>
 227:	b8 00 00 00 00       	mov    $0x0,%eax
 22c:	b9 8e 00 00 00       	mov    $0x8e,%ecx
 231:	ba 08 00 00 00       	mov    $0x8,%edx
 236:	48 89 c6             	mov    %rax,%rsi
 239:	bf 13 00 00 00       	mov    $0x13,%edi
 23e:	e8 00 00 00 00       	callq  243 <isrs_install+0x243>
 243:	b8 00 00 00 00       	mov    $0x0,%eax
 248:	b9 8e 00 00 00       	mov    $0x8e,%ecx
 24d:	ba 08 00 00 00       	mov    $0x8,%edx
 252:	48 89 c6             	mov    %rax,%rsi
 255:	bf 14 00 00 00       	mov    $0x14,%edi
 25a:	e8 00 00 00 00       	callq  25f <isrs_install+0x25f>
 25f:	b8 00 00 00 00       	mov    $0x0,%eax
 264:	b9 8e 00 00 00       	mov    $0x8e,%ecx
 269:	ba 08 00 00 00       	mov    $0x8,%edx
 26e:	48 89 c6             	mov    %rax,%rsi
 271:	bf 15 00 00 00       	mov    $0x15,%edi
 276:	e8 00 00 00 00       	callq  27b <isrs_install+0x27b>
 27b:	b8 00 00 00 00       	mov    $0x0,%eax
 280:	b9 8e 00 00 00       	mov    $0x8e,%ecx
 285:	ba 08 00 00 00       	mov    $0x8,%edx
 28a:	48 89 c6             	mov    %rax,%rsi
 28d:	bf 16 00 00 00       	mov    $0x16,%edi
 292:	e8 00 00 00 00       	callq  297 <isrs_install+0x297>
 297:	b8 00 00 00 00       	mov    $0x0,%eax
 29c:	b9 8e 00 00 00       	mov    $0x8e,%ecx
 2a1:	ba 08 00 00 00       	mov    $0x8,%edx
 2a6:	48 89 c6             	mov    %rax,%rsi
 2a9:	bf 17 00 00 00       	mov    $0x17,%edi
 2ae:	e8 00 00 00 00       	callq  2b3 <isrs_install+0x2b3>
 2b3:	b8 00 00 00 00       	mov    $0x0,%eax
 2b8:	b9 8e 00 00 00       	mov    $0x8e,%ecx
 2bd:	ba 08 00 00 00       	mov    $0x8,%edx
 2c2:	48 89 c6             	mov    %rax,%rsi
 2c5:	bf 18 00 00 00       	mov    $0x18,%edi
 2ca:	e8 00 00 00 00       	callq  2cf <isrs_install+0x2cf>
 2cf:	b8 00 00 00 00       	mov    $0x0,%eax
 2d4:	b9 8e 00 00 00       	mov    $0x8e,%ecx
 2d9:	ba 08 00 00 00       	mov    $0x8,%edx
 2de:	48 89 c6             	mov    %rax,%rsi
 2e1:	bf 19 00 00 00       	mov    $0x19,%edi
 2e6:	e8 00 00 00 00       	callq  2eb <isrs_install+0x2eb>
 2eb:	b8 00 00 00 00       	mov    $0x0,%eax
 2f0:	b9 8e 00 00 00       	mov    $0x8e,%ecx
 2f5:	ba 08 00 00 00       	mov    $0x8,%edx
 2fa:	48 89 c6             	mov    %rax,%rsi
 2fd:	bf 1a 00 00 00       	mov    $0x1a,%edi
 302:	e8 00 00 00 00       	callq  307 <isrs_install+0x307>
 307:	b8 00 00 00 00       	mov    $0x0,%eax
 30c:	b9 8e 00 00 00       	mov    $0x8e,%ecx
 311:	ba 08 00 00 00       	mov    $0x8,%edx
 316:	48 89 c6             	mov    %rax,%rsi
 319:	bf 1b 00 00 00       	mov    $0x1b,%edi
 31e:	e8 00 00 00 00       	callq  323 <isrs_install+0x323>
 323:	b8 00 00 00 00       	mov    $0x0,%eax
 328:	b9 8e 00 00 00       	mov    $0x8e,%ecx
 32d:	ba 08 00 00 00       	mov    $0x8,%edx
 332:	48 89 c6             	mov    %rax,%rsi
 335:	bf 1c 00 00 00       	mov    $0x1c,%edi
 33a:	e8 00 00 00 00       	callq  33f <isrs_install+0x33f>
 33f:	b8 00 00 00 00       	mov    $0x0,%eax
 344:	b9 8e 00 00 00       	mov    $0x8e,%ecx
 349:	ba 08 00 00 00       	mov    $0x8,%edx
 34e:	48 89 c6             	mov    %rax,%rsi
 351:	bf 1d 00 00 00       	mov    $0x1d,%edi
 356:	e8 00 00 00 00       	callq  35b <isrs_install+0x35b>
 35b:	b8 00 00 00 00       	mov    $0x0,%eax
 360:	b9 8e 00 00 00       	mov    $0x8e,%ecx
 365:	ba 08 00 00 00       	mov    $0x8,%edx
 36a:	48 89 c6             	mov    %rax,%rsi
 36d:	bf 1e 00 00 00       	mov    $0x1e,%edi
 372:	e8 00 00 00 00       	callq  377 <isrs_install+0x377>
 377:	b8 00 00 00 00       	mov    $0x0,%eax
 37c:	b9 8e 00 00 00       	mov    $0x8e,%ecx
 381:	ba 08 00 00 00       	mov    $0x8,%edx
 386:	48 89 c6             	mov    %rax,%rsi
 389:	bf 1f 00 00 00       	mov    $0x1f,%edi
 38e:	e8 00 00 00 00       	callq  393 <isrs_install+0x393>
 393:	90                   	nop
 394:	5d                   	pop    %rbp
 395:	c3                   	retq   

0000000000000396 <fault_handler>:
 396:	55                   	push   %rbp
 397:	48 89 e5             	mov    %rsp,%rbp
 
 39a:	48 83 ec 10          	sub    $0x10,%rsp
 39e:	48 89 7d f8          	mov    %rdi,-0x8(%rbp)
 3a2:	48 8b 45 f8          	mov    -0x8(%rbp),%rax
 3a6:	48 89 c6             	mov    %rax,%rsi
 3a9:	bf 00 00 00 00       	mov    $0x0,%edi
 3ae:	b8 00 00 00 00       	mov    $0x0,%eax
 3b3:	e8 00 00 00 00       	callq  3b8 <fault_handler+0x22>
 3b8:	eb fe                	jmp    3b8 <fault_handler+0x22>
